target datalayout = "e-m:e-p270:32:32-p271:32:32-p272:64:64-i64:64-i128:128-f80:128-n8:16:32:64-S128"
target triple = "x86_64-pc-linux-gnu"

%struct.FunctionCallInfoBaseData = type { ptr, ptr, ptr, i32, i8, i16, [0 x %struct.NullableDatum] }
%struct.NullableDatum = type { i64, i8 }
%struct.StringInfoData = type { ptr, i32, i32, i32 }
%struct.JsonAggState = type { ptr, i32, i32, i32, i32, %struct.JsonUniqueBuilderState }
%struct.JsonUniqueBuilderState = type { ptr, %struct.StringInfoData, ptr }

@.str.1 = private unnamed_addr constant [7 x i8] c"json.c\00", align 1
@.str.3 = private unnamed_addr constant [36 x i8] c"could not determine input data type\00", align 1
@.str.10 = private unnamed_addr constant [3 x i8] c", \00", align 1
@.str.35 = private unnamed_addr constant [49 x i8] c"json_agg_transfn called in non-aggregate context\00", align 1
@__func__.json_agg_transfn_worker = private unnamed_addr constant [24 x i8] c"json_agg_transfn_worker\00", align 1
@.str.36 = private unnamed_addr constant [3 x i8] c"\0A \00", align 1
@CurrentMemoryContext = external global ptr, align 8

; Function Attrs: inlinehint nounwind uwtable
define internal i64 @PointerGetDatum(ptr noundef %0) #2 {
  %2 = alloca ptr, align 8
  store ptr %0, ptr %2, align 8
  %3 = load ptr, ptr %2, align 8
  %4 = ptrtoint ptr %3 to i64
  ret i64 %4
}

; Function Attrs: inlinehint nounwind uwtable
define internal ptr @DatumGetPointer(i64 noundef %0) #2 {
  %2 = alloca i64, align 8
  store i64 %0, ptr %2, align 8
  %3 = load i64, ptr %2, align 8
  %4 = inttoptr i64 %3 to ptr
  ret ptr %4
}

; Function Attrs: inlinehint nounwind uwtable
define internal ptr @MemoryContextSwitchTo(ptr noundef %0) #2 {
  %2 = alloca ptr, align 8
  %3 = alloca ptr, align 8
  store ptr %0, ptr %2, align 8
  call void @llvm.lifetime.start.p0(i64 8, ptr %3) #14
  %4 = load ptr, ptr @CurrentMemoryContext, align 8
  store ptr %4, ptr %3, align 8
  %5 = load ptr, ptr %2, align 8
  store ptr %5, ptr @CurrentMemoryContext, align 8
  %6 = load ptr, ptr %3, align 8
  call void @llvm.lifetime.end.p0(i64 8, ptr %3) #14
  ret ptr %6
}

; Function Attrs: nounwind uwtable
define internal i64 @json_agg_transfn_worker(ptr noundef %0, i1 noundef zeroext %1) #0 {
  %3 = alloca i64, align 8
  %4 = alloca ptr, align 8
  %5 = alloca i8, align 1
  %6 = alloca ptr, align 8
  %7 = alloca ptr, align 8
  %8 = alloca ptr, align 8
  %9 = alloca i64, align 8
  %10 = alloca i32, align 4
  %11 = alloca i32, align 4
  store ptr %0, ptr %4, align 8
  %12 = zext i1 %1 to i8
  store i8 %12, ptr %5, align 1
  call void @llvm.lifetime.start.p0(i64 8, ptr %6) #14
  call void @llvm.lifetime.start.p0(i64 8, ptr %7) #14
  call void @llvm.lifetime.start.p0(i64 8, ptr %8) #14
  call void @llvm.lifetime.start.p0(i64 8, ptr %9) #14
  %13 = load ptr, ptr %4, align 8
  %14 = call i32 @AggCheckCallContext(ptr noundef %13, ptr noundef %6)
  %15 = icmp ne i32 %14, 0
  br i1 %15, label %27, label %16

16:                                               ; preds = %2
  br label %17

17:                                               ; preds = %16
  br i1 true, label %18, label %20

18:                                               ; preds = %17
  %19 = call zeroext i1 @errstart_cold(i32 noundef 21, ptr noundef null) #15
  br i1 %19, label %22, label %24

20:                                               ; preds = %17
  %21 = call zeroext i1 @errstart(i32 noundef 21, ptr noundef null)
  br i1 %21, label %22, label %24

22:                                               ; preds = %20, %18
  %23 = call i32 (ptr, ...) @errmsg_internal(ptr noundef @.str.35)
  call void @errfinish(ptr noundef @.str.1, i32 noundef 789, ptr noundef @__func__.json_agg_transfn_worker)
  br label %24

24:                                               ; preds = %22, %20, %18
  unreachable

25:                                               ; No predecessors!
  br label %26

26:                                               ; preds = %25
  br label %27

27:                                               ; preds = %26, %2
  %28 = load ptr, ptr %4, align 8
  %29 = getelementptr inbounds nuw %struct.FunctionCallInfoBaseData, ptr %28, i32 0, i32 6
  %30 = getelementptr inbounds [0 x %struct.NullableDatum], ptr %29, i64 0, i64 0
  %31 = getelementptr inbounds nuw %struct.NullableDatum, ptr %30, i32 0, i32 1
  %32 = load i8, ptr %31, align 8, !range !4, !noundef !5
  %33 = trunc i8 %32 to i1
  br i1 %33, label %34, label %70

34:                                               ; preds = %27
  call void @llvm.lifetime.start.p0(i64 4, ptr %10) #14
  %35 = load ptr, ptr %4, align 8
  %36 = getelementptr inbounds nuw %struct.FunctionCallInfoBaseData, ptr %35, i32 0, i32 0
  %37 = load ptr, ptr %36, align 8
  %38 = call i32 @get_fn_expr_argtype(ptr noundef %37, i32 noundef 1)
  store i32 %38, ptr %10, align 4
  %39 = load i32, ptr %10, align 4
  %40 = icmp eq i32 %39, 0
  br i1 %40, label %41, label %53

41:                                               ; preds = %34
  br label %42

42:                                               ; preds = %41
  br i1 true, label %43, label %45

43:                                               ; preds = %42
  %44 = call zeroext i1 @errstart_cold(i32 noundef 21, ptr noundef null) #15
  br i1 %44, label %47, label %50

45:                                               ; preds = %42
  %46 = call zeroext i1 @errstart(i32 noundef 21, ptr noundef null)
  br i1 %46, label %47, label %50

47:                                               ; preds = %45, %43
  %48 = call i32 @errcode(i32 noundef 50856066)
  %49 = call i32 (ptr, ...) @errmsg(ptr noundef @.str.3)
  call void @errfinish(ptr noundef @.str.1, i32 noundef 799, ptr noundef @__func__.json_agg_transfn_worker)
  br label %50

50:                                               ; preds = %47, %45, %43
  unreachable

51:                                               ; No predecessors!
  br label %52

52:                                               ; preds = %51
  br label %53

53:                                               ; preds = %52, %34
  %54 = load ptr, ptr %6, align 8
  %55 = call ptr @MemoryContextSwitchTo(ptr noundef %54)
  store ptr %55, ptr %7, align 8
  %56 = call ptr @palloc(i64 noundef 64)
  store ptr %56, ptr %8, align 8
  %57 = call ptr @makeStringInfo()
  %58 = load ptr, ptr %8, align 8
  %59 = getelementptr inbounds nuw %struct.JsonAggState, ptr %58, i32 0, i32 0
  store ptr %57, ptr %59, align 8
  %60 = load ptr, ptr %7, align 8
  %61 = call ptr @MemoryContextSwitchTo(ptr noundef %60)
  %62 = load ptr, ptr %8, align 8
  %63 = getelementptr inbounds nuw %struct.JsonAggState, ptr %62, i32 0, i32 0
  %64 = load ptr, ptr %63, align 8
  call void @appendStringInfoChar(ptr noundef %64, i8 noundef signext 91)
  %65 = load i32, ptr %10, align 4
  %66 = load ptr, ptr %8, align 8
  %67 = getelementptr inbounds nuw %struct.JsonAggState, ptr %66, i32 0, i32 3
  %68 = load ptr, ptr %8, align 8
  %69 = getelementptr inbounds nuw %struct.JsonAggState, ptr %68, i32 0, i32 4
  call void @json_categorize_type(i32 noundef %65, i1 noundef zeroext false, ptr noundef %67, ptr noundef %69)
  call void @llvm.lifetime.end.p0(i64 4, ptr %10) #14
  br label %77

70:                                               ; preds = %27
  %71 = load ptr, ptr %4, align 8
  %72 = getelementptr inbounds nuw %struct.FunctionCallInfoBaseData, ptr %71, i32 0, i32 6
  %73 = getelementptr inbounds [0 x %struct.NullableDatum], ptr %72, i64 0, i64 0
  %74 = getelementptr inbounds nuw %struct.NullableDatum, ptr %73, i32 0, i32 0
  %75 = load i64, ptr %74, align 8
  %76 = call ptr @DatumGetPointer(i64 noundef %75)
  store ptr %76, ptr %8, align 8
  br label %77

77:                                               ; preds = %70, %53
  %78 = load i8, ptr %5, align 1, !range !4, !noundef !5
  %79 = trunc i8 %78 to i1
  br i1 %79, label %80, label %90

80:                                               ; preds = %77
  %81 = load ptr, ptr %4, align 8
  %82 = getelementptr inbounds nuw %struct.FunctionCallInfoBaseData, ptr %81, i32 0, i32 6
  %83 = getelementptr inbounds [0 x %struct.NullableDatum], ptr %82, i64 0, i64 1
  %84 = getelementptr inbounds nuw %struct.NullableDatum, ptr %83, i32 0, i32 1
  %85 = load i8, ptr %84, align 8, !range !4, !noundef !5
  %86 = trunc i8 %85 to i1
  br i1 %86, label %87, label %90

87:                                               ; preds = %80
  %88 = load ptr, ptr %8, align 8
  %89 = call i64 @PointerGetDatum(ptr noundef %88)
  store i64 %89, ptr %3, align 8
  store i32 1, ptr %11, align 4
  br label %160

90:                                               ; preds = %80, %77
  %91 = load ptr, ptr %8, align 8
  %92 = getelementptr inbounds nuw %struct.JsonAggState, ptr %91, i32 0, i32 0
  %93 = load ptr, ptr %92, align 8
  %94 = getelementptr inbounds nuw %struct.StringInfoData, ptr %93, i32 0, i32 1
  %95 = load i32, ptr %94, align 8
  %96 = icmp sgt i32 %95, 1
  br i1 %96, label %97, label %101

97:                                               ; preds = %90
  %98 = load ptr, ptr %8, align 8
  %99 = getelementptr inbounds nuw %struct.JsonAggState, ptr %98, i32 0, i32 0
  %100 = load ptr, ptr %99, align 8
  call void @appendStringInfoString(ptr noundef %100, ptr noundef @.str.10)
  br label %101

101:                                              ; preds = %97, %90
  %102 = load ptr, ptr %4, align 8
  %103 = getelementptr inbounds nuw %struct.FunctionCallInfoBaseData, ptr %102, i32 0, i32 6
  %104 = getelementptr inbounds [0 x %struct.NullableDatum], ptr %103, i64 0, i64 1
  %105 = getelementptr inbounds nuw %struct.NullableDatum, ptr %104, i32 0, i32 1
  %106 = load i8, ptr %105, align 8, !range !4, !noundef !5
  %107 = trunc i8 %106 to i1
  br i1 %107, label %108, label %114

108:                                              ; preds = %101
  %109 = load ptr, ptr %8, align 8
  %110 = getelementptr inbounds nuw %struct.JsonAggState, ptr %109, i32 0, i32 0
  %111 = load ptr, ptr %110, align 8
  call void @datum_to_json_internal(i64 noundef 0, i1 noundef zeroext true, ptr noundef %111, i32 noundef 0, i32 noundef 0, i1 noundef zeroext false)
  %112 = load ptr, ptr %8, align 8
  %113 = call i64 @PointerGetDatum(ptr noundef %112)
  store i64 %113, ptr %3, align 8
  store i32 1, ptr %11, align 4
  br label %160

114:                                              ; preds = %101
  %115 = load ptr, ptr %4, align 8
  %116 = getelementptr inbounds nuw %struct.FunctionCallInfoBaseData, ptr %115, i32 0, i32 6
  %117 = getelementptr inbounds [0 x %struct.NullableDatum], ptr %116, i64 0, i64 1
  %118 = getelementptr inbounds nuw %struct.NullableDatum, ptr %117, i32 0, i32 0
  %119 = load i64, ptr %118, align 8
  store i64 %119, ptr %9, align 8
  %120 = load ptr, ptr %4, align 8
  %121 = getelementptr inbounds nuw %struct.FunctionCallInfoBaseData, ptr %120, i32 0, i32 6
  %122 = getelementptr inbounds [0 x %struct.NullableDatum], ptr %121, i64 0, i64 0
  %123 = getelementptr inbounds nuw %struct.NullableDatum, ptr %122, i32 0, i32 1
  %124 = load i8, ptr %123, align 8, !range !4, !noundef !5
  %125 = trunc i8 %124 to i1
  br i1 %125, label %147, label %126

126:                                              ; preds = %114
  %127 = load ptr, ptr %8, align 8
  %128 = getelementptr inbounds nuw %struct.JsonAggState, ptr %127, i32 0, i32 0
  %129 = load ptr, ptr %128, align 8
  %130 = getelementptr inbounds nuw %struct.StringInfoData, ptr %129, i32 0, i32 1
  %131 = load i32, ptr %130, align 8
  %132 = icmp sgt i32 %131, 1
  br i1 %132, label %133, label %147

133:                                              ; preds = %126
  %134 = load ptr, ptr %8, align 8
  %135 = getelementptr inbounds nuw %struct.JsonAggState, ptr %134, i32 0, i32 3
  %136 = load i32, ptr %135, align 8
  %137 = icmp eq i32 %136, 8
  br i1 %137, label %143, label %138

138:                                              ; preds = %133
  %139 = load ptr, ptr %8, align 8
  %140 = getelementptr inbounds nuw %struct.JsonAggState, ptr %139, i32 0, i32 3
  %141 = load i32, ptr %140, align 8
  %142 = icmp eq i32 %141, 9
  br i1 %142, label %143, label %147

143:                                              ; preds = %138, %133
  %144 = load ptr, ptr %8, align 8
  %145 = getelementptr inbounds nuw %struct.JsonAggState, ptr %144, i32 0, i32 0
  %146 = load ptr, ptr %145, align 8
  call void @appendStringInfoString(ptr noundef %146, ptr noundef @.str.36)
  br label %147

147:                                              ; preds = %143, %138, %126, %114
  %148 = load i64, ptr %9, align 8
  %149 = load ptr, ptr %8, align 8
  %150 = getelementptr inbounds nuw %struct.JsonAggState, ptr %149, i32 0, i32 0
  %151 = load ptr, ptr %150, align 8
  %152 = load ptr, ptr %8, align 8
  %153 = getelementptr inbounds nuw %struct.JsonAggState, ptr %152, i32 0, i32 3
  %154 = load i32, ptr %153, align 8
  %155 = load ptr, ptr %8, align 8
  %156 = getelementptr inbounds nuw %struct.JsonAggState, ptr %155, i32 0, i32 4
  %157 = load i32, ptr %156, align 4
  call void @datum_to_json_internal(i64 noundef %148, i1 noundef zeroext false, ptr noundef %151, i32 noundef %154, i32 noundef %157, i1 noundef zeroext false)
  %158 = load ptr, ptr %8, align 8
  %159 = call i64 @PointerGetDatum(ptr noundef %158)
  store i64 %159, ptr %3, align 8
  store i32 1, ptr %11, align 4
  br label %160

160:                                              ; preds = %147, %108, %87
  call void @llvm.lifetime.end.p0(i64 8, ptr %9) #14
  call void @llvm.lifetime.end.p0(i64 8, ptr %8) #14
  call void @llvm.lifetime.end.p0(i64 8, ptr %7) #14
  call void @llvm.lifetime.end.p0(i64 8, ptr %6) #14
  %161 = load i64, ptr %3, align 8
  ret i64 %161
}