; Function Attrs: nounwind uwtable
define internal fastcc i64 @json_agg_transfn_worker(ptr noundef %0, i1 noundef zeroext %1) unnamed_addr #0 {
  %3 = alloca ptr, align 8
  call void @llvm.lifetime.start.p0(i64 8, ptr nonnull %3) #10
  %4 = call i32 @AggCheckCallContext(ptr noundef %0, ptr noundef nonnull %3) #10
  %.not = icmp eq i32 %4, 0
  br i1 %.not, label %5, label %8

5:                                                ; preds = %2
  %6 = call zeroext i1 @errstart_cold(i32 noundef 21, ptr noundef null) #11
  call void @llvm.assume(i1 %6)
  %7 = call i32 (ptr, ...) @errmsg_internal(ptr noundef nonnull @.str.35) #10
  call void @errfinish(ptr noundef nonnull @.str.1, i32 noundef 789, ptr noundef nonnull @__func__.json_agg_transfn_worker) #10
  unreachable

8:                                                ; preds = %2
  %9 = getelementptr inbounds nuw i8, ptr %0, i64 40
  %10 = load i8, ptr %9, align 8, !range !4, !noundef !5
  %11 = trunc nuw i8 %10 to i1
  br i1 %11, label %12, label %28

12:                                               ; preds = %8
  %13 = load ptr, ptr %0, align 8
  %14 = call i32 @get_fn_expr_argtype(ptr noundef %13, i32 noundef 1) #10
  %15 = icmp eq i32 %14, 0
  br i1 %15, label %16, label %20

16:                                               ; preds = %12
  %17 = call zeroext i1 @errstart_cold(i32 noundef 21, ptr noundef null) #11
  call void @llvm.assume(i1 %17)
  %18 = call i32 @errcode(i32 noundef 50856066) #10
  %19 = call i32 (ptr, ...) @errmsg(ptr noundef nonnull @.str.3) #10
  call void @errfinish(ptr noundef nonnull @.str.1, i32 noundef 799, ptr noundef nonnull @__func__.json_agg_transfn_worker) #10
  unreachable

20:                                               ; preds = %12
  %21 = load ptr, ptr %3, align 8
  %22 = load ptr, ptr @CurrentMemoryContext, align 8
  store ptr %21, ptr @CurrentMemoryContext, align 8
  %23 = call ptr @palloc(i64 noundef 64) #10
  %24 = call ptr @makeStringInfo() #10
  store ptr %24, ptr %23, align 8
  store ptr %22, ptr @CurrentMemoryContext, align 8
  %25 = load ptr, ptr %23, align 8
  call void @appendStringInfoChar(ptr noundef %25, i8 noundef signext 91) #10
  %26 = getelementptr inbounds nuw i8, ptr %23, i64 16
  %27 = getelementptr inbounds nuw i8, ptr %23, i64 20
  call void @json_categorize_type(i32 noundef %14, i1 noundef zeroext false, ptr noundef nonnull %26, ptr noundef nonnull %27) #10
  br label %32

28:                                               ; preds = %8
  %29 = getelementptr inbounds nuw i8, ptr %0, i64 32
  %30 = load i64, ptr %29, align 8
  %31 = inttoptr i64 %30 to ptr
  br label %32

32:                                               ; preds = %28, %20
  %.030 = phi ptr [ %23, %20 ], [ %31, %28 ]
  br i1 %1, label %33, label %37

33:                                               ; preds = %32
  %34 = getelementptr inbounds nuw i8, ptr %0, i64 56
  %35 = load i8, ptr %34, align 8, !range !4, !noundef !5
  %36 = trunc nuw i8 %35 to i1
  br i1 %36, label %69, label %37

37:                                               ; preds = %33, %32
  %38 = load ptr, ptr %.030, align 8
  %39 = getelementptr inbounds nuw i8, ptr %38, i64 8
  %40 = load i32, ptr %39, align 8
  %41 = icmp sgt i32 %40, 1
  br i1 %41, label %42, label %43

42:                                               ; preds = %37
  call void @appendStringInfoString(ptr noundef nonnull %38, ptr noundef nonnull @.str.10) #10
  br label %43

43:                                               ; preds = %42, %37
  %44 = getelementptr inbounds nuw i8, ptr %0, i64 56
  %45 = load i8, ptr %44, align 8, !range !4, !noundef !5
  %46 = trunc nuw i8 %45 to i1
  br i1 %46, label %47, label %49

47:                                               ; preds = %43
  %48 = load ptr, ptr %.030, align 8
  call void @check_stack_depth() #10
  call void @appendBinaryStringInfo(ptr noundef %48, ptr noundef nonnull @.str.19, i32 noundef 4) #10
  br label %69

49:                                               ; preds = %43
  %50 = getelementptr inbounds nuw i8, ptr %0, i64 48
  %51 = load i64, ptr %50, align 8
  %52 = load i8, ptr %9, align 8, !range !4, !noundef !5
  %53 = trunc nuw i8 %52 to i1
  %.pre33 = load ptr, ptr %.030, align 8
  br i1 %53, label %63, label %54

54:                                               ; preds = %49
  %55 = getelementptr inbounds nuw i8, ptr %.pre33, i64 8
  %56 = load i32, ptr %55, align 8
  %57 = icmp sgt i32 %56, 1
  br i1 %57, label %58, label %63

58:                                               ; preds = %54
  %59 = getelementptr inbounds nuw i8, ptr %.030, i64 16
  %60 = load i32, ptr %59, align 8
  %61 = and i32 %60, -2
  %switch = icmp eq i32 %61, 8
  br i1 %switch, label %62, label %63

62:                                               ; preds = %58
  call void @appendStringInfoString(ptr noundef nonnull %.pre33, ptr noundef nonnull @.str.36) #10
  %.pre = load ptr, ptr %.030, align 8
  br label %63

63:                                               ; preds = %58, %62, %54, %49
  %64 = phi ptr [ %.pre33, %58 ], [ %.pre, %62 ], [ %.pre33, %54 ], [ %.pre33, %49 ]
  %65 = getelementptr inbounds nuw i8, ptr %.030, i64 16
  %66 = load i32, ptr %65, align 8
  %67 = getelementptr inbounds nuw i8, ptr %.030, i64 20
  %68 = load i32, ptr %67, align 4
  call fastcc void @datum_to_json_internal(i64 noundef %51, i1 noundef zeroext false, ptr noundef %64, i32 noundef %66, i32 noundef %68, i1 noundef zeroext false)
  br label %69

69:                                               ; preds = %33, %63, %47
  %.0 = ptrtoint ptr %.030 to i64
  call void @llvm.lifetime.end.p0(i64 8, ptr nonnull %3) #10
  ret i64 %.0
}